target datalayout = "e-m:e-p270:32:32-p271:32:32-p272:64:64-i64:64-i128:128-f80:128-n8:16:32:64-S128"
target triple = "x86_64-pc-linux-gnu"

%struct.Gia_Man_t_ = type { ptr, ptr, i32, i32, i32, i32, ptr, ptr, i32, i32, i32, ptr, ptr, %struct.Vec_Int_t_, %struct.Vec_Int_t_, i32, i32, i32, %struct.Vec_Int_t_, ptr, ptr, ptr, i32, i32, i32, i32, ptr, ptr, ptr, ptr, ptr, i32, i32, ptr, i32, ptr, ptr, ptr, ptr, ptr, ptr, ptr, ptr, ptr, ptr, ptr, ptr, ptr, ptr, ptr, ptr, ptr, ptr, %struct.Vec_Int_t_, %struct.Vec_Int_t_, ptr, ptr, ptr, ptr, ptr, ptr, ptr, ptr, ptr, ptr, ptr, ptr, ptr, ptr, ptr, ptr, ptr, ptr, ptr, ptr, ptr, i32, float, float, ptr, ptr, i32, ptr, ptr, ptr, ptr, ptr, ptr, ptr, ptr, ptr, ptr, ptr, ptr, ptr, ptr, ptr, i64, i64, ptr, ptr, i32, i32, i32, i32, i32, i32, i32, i32, i32, i32, i32, i32, ptr, ptr, ptr, ptr, ptr, ptr, ptr, ptr, i32, i32, i32, ptr, i32, i32, ptr, ptr, ptr, ptr, ptr, ptr, i32, i32, ptr, %struct.Vec_Int_t_, %struct.Vec_Int_t_, %struct.Vec_Int_t_, ptr, ptr, ptr }
%struct.Vec_Int_t_ = type { i32, i32, ptr }
%struct.Vec_Ptr_t_ = type { i32, i32, ptr }
%struct.Cec_ManSim_t_ = type { ptr, ptr, i32, ptr, ptr, i32, i32, i32, i32, i32, ptr, ptr, ptr, i32, i32, ptr, ptr, ptr, ptr, ptr, ptr, ptr }
%struct.Cec_ParSim_t_ = type { i32, i32, i32, i32, i32, i32, i32, i32, i32, i32, i32, i32 }

; Function Attrs: nounwind uwtable
define internal i32 @Vec_IntSize(ptr noundef %0) #0 {
  %2 = alloca ptr, align 8
  store ptr %0, ptr %2, align 8
  %3 = load ptr, ptr %2, align 8
  %4 = getelementptr inbounds %struct.Vec_Int_t_, ptr %3, i32 0, i32 1
  %5 = load i32, ptr %4, align 4
  ret i32 %5
}

; Function Attrs: nounwind uwtable
define internal i32 @Gia_ManPiNum(ptr noundef %0) #0 {
  %2 = alloca ptr, align 8
  store ptr %0, ptr %2, align 8
  %3 = load ptr, ptr %2, align 8
  %4 = getelementptr inbounds %struct.Gia_Man_t_, ptr %3, i32 0, i32 11
  %5 = load ptr, ptr %4, align 8
  %6 = call i32 @Vec_IntSize(ptr noundef %5)
  %7 = load ptr, ptr %2, align 8
  %8 = getelementptr inbounds %struct.Gia_Man_t_, ptr %7, i32 0, i32 2
  %9 = load i32, ptr %8, align 8
  %10 = sub nsw i32 %6, %9
  ret i32 %10
}

; Function Attrs: nounwind uwtable
define internal i32 @Gia_ManPoNum(ptr noundef %0) #0 {
  %2 = alloca ptr, align 8
  store ptr %0, ptr %2, align 8
  %3 = load ptr, ptr %2, align 8
  %4 = getelementptr inbounds %struct.Gia_Man_t_, ptr %3, i32 0, i32 12
  %5 = load ptr, ptr %4, align 8
  %6 = call i32 @Vec_IntSize(ptr noundef %5)
  %7 = load ptr, ptr %2, align 8
  %8 = getelementptr inbounds %struct.Gia_Man_t_, ptr %7, i32 0, i32 2
  %9 = load i32, ptr %8, align 8
  %10 = sub nsw i32 %6, %9
  ret i32 %10
}

; Function Attrs: nounwind uwtable
define internal ptr @Vec_PtrEntry(ptr noundef %0, i32 noundef %1) #0 {
  %3 = alloca ptr, align 8
  %4 = alloca i32, align 4
  store ptr %0, ptr %3, align 8
  store i32 %1, ptr %4, align 4
  %5 = load ptr, ptr %3, align 8
  %6 = getelementptr inbounds %struct.Vec_Ptr_t_, ptr %5, i32 0, i32 2
  %7 = load ptr, ptr %6, align 8
  %8 = load i32, ptr %4, align 4
  %9 = sext i32 %8 to i64
  %10 = getelementptr inbounds ptr, ptr %7, i64 %9
  %11 = load ptr, ptr %10, align 8
  ret ptr %11
}

; Function Attrs: nounwind uwtable
define internal i32 @Gia_ManRegNum(ptr noundef %0) #0 {
  %2 = alloca ptr, align 8
  store ptr %0, ptr %2, align 8
  %3 = load ptr, ptr %2, align 8
  %4 = getelementptr inbounds %struct.Gia_Man_t_, ptr %3, i32 0, i32 2
  %5 = load i32, ptr %4, align 8
  ret i32 %5
}

; Function Attrs: nounwind uwtable
define i32 @Cec_ManSeqResimulate(ptr noundef %0, ptr noundef %1) #0 {
  %3 = alloca i32, align 4
  %4 = alloca ptr, align 8
  %5 = alloca ptr, align 8
  %6 = alloca ptr, align 8
  %7 = alloca ptr, align 8
  %8 = alloca i32, align 4
  %9 = alloca i32, align 4
  %10 = alloca i32, align 4
  %11 = alloca i32, align 4
  store ptr %0, ptr %4, align 8
  store ptr %1, ptr %5, align 8
  store i32 0, ptr %10, align 4
  br label %12

12:                                               ; preds = %53, %2
  %13 = load i32, ptr %10, align 4
  %14 = load ptr, ptr %4, align 8
  %15 = getelementptr inbounds %struct.Cec_ManSim_t_, ptr %14, i32 0, i32 0
  %16 = load ptr, ptr %15, align 8
  %17 = call i32 @Gia_ManRegNum(ptr noundef %16)
  %18 = icmp slt i32 %13, %17
  br i1 %18, label %19, label %56

19:                                               ; preds = %12
  %20 = load ptr, ptr %5, align 8
  %21 = load i32, ptr %10, align 4
  %22 = call ptr @Vec_PtrEntry(ptr noundef %20, i32 noundef %21)
  store ptr %22, ptr %6, align 8
  %23 = load ptr, ptr %4, align 8
  %24 = getelementptr inbounds %struct.Cec_ManSim_t_, ptr %23, i32 0, i32 11
  %25 = load ptr, ptr %24, align 8
  %26 = load ptr, ptr %4, align 8
  %27 = getelementptr inbounds %struct.Cec_ManSim_t_, ptr %26, i32 0, i32 0
  %28 = load ptr, ptr %27, align 8
  %29 = call i32 @Gia_ManPoNum(ptr noundef %28)
  %30 = load i32, ptr %10, align 4
  %31 = add nsw i32 %29, %30
  %32 = call ptr @Vec_PtrEntry(ptr noundef %25, i32 noundef %31)
  store ptr %32, ptr %7, align 8
  store i32 0, ptr %11, align 4
  br label %33

33:                                               ; preds = %49, %19
  %34 = load i32, ptr %11, align 4
  %35 = load ptr, ptr %4, align 8
  %36 = getelementptr inbounds %struct.Cec_ManSim_t_, ptr %35, i32 0, i32 2
  %37 = load i32, ptr %36, align 8
  %38 = icmp slt i32 %34, %37
  br i1 %38, label %39, label %52

39:                                               ; preds = %33
  %40 = load ptr, ptr %6, align 8
  %41 = load i32, ptr %11, align 4
  %42 = sext i32 %41 to i64
  %43 = getelementptr inbounds i32, ptr %40, i64 %42
  %44 = load i32, ptr %43, align 4
  %45 = load ptr, ptr %7, align 8
  %46 = load i32, ptr %11, align 4
  %47 = sext i32 %46 to i64
  %48 = getelementptr inbounds i32, ptr %45, i64 %47
  store i32 %44, ptr %48, align 4
  br label %49

49:                                               ; preds = %39
  %50 = load i32, ptr %11, align 4
  %51 = add nsw i32 %50, 1
  store i32 %51, ptr %11, align 4
  br label %33, !llvm.loop !16

52:                                               ; preds = %33
  br label %53

53:                                               ; preds = %52
  %54 = load i32, ptr %10, align 4
  %55 = add nsw i32 %54, 1
  store i32 %55, ptr %10, align 4
  br label %12, !llvm.loop !17

56:                                               ; preds = %12
  store i32 0, ptr %8, align 4
  br label %57

57:                                               ; preds = %170, %56
  %58 = load i32, ptr %8, align 4
  %59 = load ptr, ptr %4, align 8
  %60 = getelementptr inbounds %struct.Cec_ManSim_t_, ptr %59, i32 0, i32 1
  %61 = load ptr, ptr %60, align 8
  %62 = getelementptr inbounds %struct.Cec_ParSim_t_, ptr %61, i32 0, i32 1
  %63 = load i32, ptr %62, align 4
  %64 = icmp slt i32 %58, %63
  br i1 %64, label %65, label %173

65:                                               ; preds = %57
  store i32 0, ptr %9, align 4
  br label %66

66:                                               ; preds = %103, %65
  %67 = load i32, ptr %9, align 4
  %68 = load ptr, ptr %4, align 8
  %69 = getelementptr inbounds %struct.Cec_ManSim_t_, ptr %68, i32 0, i32 0
  %70 = load ptr, ptr %69, align 8
  %71 = call i32 @Gia_ManPiNum(ptr noundef %70)
  %72 = icmp slt i32 %67, %71
  br i1 %72, label %73, label %106

73:                                               ; preds = %66
  %74 = load ptr, ptr %5, align 8
  %75 = load i32, ptr %10, align 4
  %76 = add nsw i32 %75, 1
  store i32 %76, ptr %10, align 4
  %77 = call ptr @Vec_PtrEntry(ptr noundef %74, i32 noundef %75)
  store ptr %77, ptr %6, align 8
  %78 = load ptr, ptr %4, align 8
  %79 = getelementptr inbounds %struct.Cec_ManSim_t_, ptr %78, i32 0, i32 10
  %80 = load ptr, ptr %79, align 8
  %81 = load i32, ptr %9, align 4
  %82 = call ptr @Vec_PtrEntry(ptr noundef %80, i32 noundef %81)
  store ptr %82, ptr %7, align 8
  store i32 0, ptr %11, align 4
  br label %83

83:                                               ; preds = %99, %73
  %84 = load i32, ptr %11, align 4
  %85 = load ptr, ptr %4, align 8
  %86 = getelementptr inbounds %struct.Cec_ManSim_t_, ptr %85, i32 0, i32 2
  %87 = load i32, ptr %86, align 8
  %88 = icmp slt i32 %84, %87
  br i1 %88, label %89, label %102

89:                                               ; preds = %83
  %90 = load ptr, ptr %6, align 8
  %91 = load i32, ptr %11, align 4
  %92 = sext i32 %91 to i64
  %93 = getelementptr inbounds i32, ptr %90, i64 %92
  %94 = load i32, ptr %93, align 4
  %95 = load ptr, ptr %7, align 8
  %96 = load i32, ptr %11, align 4
  %97 = sext i32 %96 to i64
  %98 = getelementptr inbounds i32, ptr %95, i64 %97
  store i32 %94, ptr %98, align 4
  br label %99

99:                                               ; preds = %89
  %100 = load i32, ptr %11, align 4
  %101 = add nsw i32 %100, 1
  store i32 %101, ptr %11, align 4
  br label %83, !llvm.loop !18

102:                                              ; preds = %83
  br label %103

103:                                              ; preds = %102
  %104 = load i32, ptr %9, align 4
  %105 = add nsw i32 %104, 1
  store i32 %105, ptr %9, align 4
  br label %66, !llvm.loop !19

106:                                              ; preds = %66
  store i32 0, ptr %9, align 4
  br label %107

107:                                              ; preds = %155, %106
  %108 = load i32, ptr %9, align 4
  %109 = load ptr, ptr %4, align 8
  %110 = getelementptr inbounds %struct.Cec_ManSim_t_, ptr %109, i32 0, i32 0
  %111 = load ptr, ptr %110, align 8
  %112 = call i32 @Gia_ManRegNum(ptr noundef %111)
  %113 = icmp slt i32 %108, %112
  br i1 %113, label %114, label %158

114:                                              ; preds = %107
  %115 = load ptr, ptr %4, align 8
  %116 = getelementptr inbounds %struct.Cec_ManSim_t_, ptr %115, i32 0, i32 11
  %117 = load ptr, ptr %116, align 8
  %118 = load ptr, ptr %4, align 8
  %119 = getelementptr inbounds %struct.Cec_ManSim_t_, ptr %118, i32 0, i32 0
  %120 = load ptr, ptr %119, align 8
  %121 = call i32 @Gia_ManPoNum(ptr noundef %120)
  %122 = load i32, ptr %9, align 4
  %123 = add nsw i32 %121, %122
  %124 = call ptr @Vec_PtrEntry(ptr noundef %117, i32 noundef %123)
  store ptr %124, ptr %6, align 8
  %125 = load ptr, ptr %4, align 8
  %126 = getelementptr inbounds %struct.Cec_ManSim_t_, ptr %125, i32 0, i32 10
  %127 = load ptr, ptr %126, align 8
  %128 = load ptr, ptr %4, align 8
  %129 = getelementptr inbounds %struct.Cec_ManSim_t_, ptr %128, i32 0, i32 0
  %130 = load ptr, ptr %129, align 8
  %131 = call i32 @Gia_ManPiNum(ptr noundef %130)
  %132 = load i32, ptr %9, align 4
  %133 = add nsw i32 %131, %132
  %134 = call ptr @Vec_PtrEntry(ptr noundef %127, i32 noundef %133)
  store ptr %134, ptr %7, align 8
  store i32 0, ptr %11, align 4
  br label %135

135:                                              ; preds = %151, %114
  %136 = load i32, ptr %11, align 4
  %137 = load ptr, ptr %4, align 8
  %138 = getelementptr inbounds %struct.Cec_ManSim_t_, ptr %137, i32 0, i32 2
  %139 = load i32, ptr %138, align 8
  %140 = icmp slt i32 %136, %139
  br i1 %140, label %141, label %154

141:                                              ; preds = %135
  %142 = load ptr, ptr %6, align 8
  %143 = load i32, ptr %11, align 4
  %144 = sext i32 %143 to i64
  %145 = getelementptr inbounds i32, ptr %142, i64 %144
  %146 = load i32, ptr %145, align 4
  %147 = load ptr, ptr %7, align 8
  %148 = load i32, ptr %11, align 4
  %149 = sext i32 %148 to i64
  %150 = getelementptr inbounds i32, ptr %147, i64 %149
  store i32 %146, ptr %150, align 4
  br label %151

151:                                              ; preds = %141
  %152 = load i32, ptr %11, align 4
  %153 = add nsw i32 %152, 1
  store i32 %153, ptr %11, align 4
  br label %135, !llvm.loop !20

154:                                              ; preds = %135
  br label %155

155:                                              ; preds = %154
  %156 = load i32, ptr %9, align 4
  %157 = add nsw i32 %156, 1
  store i32 %157, ptr %9, align 4
  br label %107, !llvm.loop !21

158:                                              ; preds = %107
  %159 = load ptr, ptr %4, align 8
  %160 = load ptr, ptr %4, align 8
  %161 = getelementptr inbounds %struct.Cec_ManSim_t_, ptr %160, i32 0, i32 10
  %162 = load ptr, ptr %161, align 8
  %163 = load ptr, ptr %4, align 8
  %164 = getelementptr inbounds %struct.Cec_ManSim_t_, ptr %163, i32 0, i32 11
  %165 = load ptr, ptr %164, align 8
  %166 = call i32 @Cec_ManSimSimulateRound(ptr noundef %159, ptr noundef %162, ptr noundef %165)
  %167 = icmp ne i32 %166, 0
  br i1 %167, label %168, label %169

168:                                              ; preds = %158
  store i32 1, ptr %3, align 4
  br label %174

169:                                              ; preds = %158
  br label %170

170:                                              ; preds = %169
  %171 = load i32, ptr %8, align 4
  %172 = add nsw i32 %171, 1
  store i32 %172, ptr %8, align 4
  br label %57, !llvm.loop !22

173:                                              ; preds = %57
  store i32 0, ptr %3, align 4
  br label %174

174:                                              ; preds = %173, %168
  %175 = load i32, ptr %3, align 4
  ret i32 %175
}