; Function Attrs: nounwind uwtable
define range(i32 0, 2) i32 @Cec_ManSeqResimulate(ptr noundef %0, ptr noundef readonly captures(none) %1) local_unnamed_addr #0 {
  %3 = load ptr, ptr %0, align 8
  %4 = getelementptr i8, ptr %3, i64 16
  %.val6476 = load i32, ptr %4, align 8
  %5 = icmp sgt i32 %.val6476, 0
  br i1 %5, label %.lr.ph80, label %.preheader74

.lr.ph80:                                         ; preds = %2
  %6 = getelementptr i8, ptr %1, i64 8
  %7 = getelementptr inbounds nuw i8, ptr %0, i64 72
  %8 = getelementptr inbounds nuw i8, ptr %0, i64 16
  %9 = load i32, ptr %8, align 8
  %10 = icmp sgt i32 %9, 0
  br i1 %10, label %.lr.ph80.split, label %.preheader74

.preheader74.loopexit:                            ; preds = %._crit_edge
  %11 = trunc nuw nsw i64 %indvars.iv.next116 to i32
  br label %.preheader74

.preheader74:                                     ; preds = %.lr.ph80, %.preheader74.loopexit, %2
  %.051.lcssa = phi i32 [ 0, %2 ], [ %11, %.preheader74.loopexit ], [ %.val6476, %.lr.ph80 ]
  %12 = getelementptr inbounds nuw i8, ptr %0, i64 64
  %13 = getelementptr inbounds nuw i8, ptr %0, i64 8
  %14 = load ptr, ptr %13, align 8
  %15 = getelementptr inbounds nuw i8, ptr %14, i64 4
  %16 = load i32, ptr %15, align 4
  %17 = icmp sgt i32 %16, 0
  br i1 %17, label %.preheader73.lr.ph, label %._crit_edge105

.preheader73.lr.ph:                               ; preds = %.preheader74
  %18 = getelementptr i8, ptr %1, i64 8
  %19 = getelementptr inbounds nuw i8, ptr %0, i64 16
  %20 = getelementptr inbounds nuw i8, ptr %0, i64 72
  br label %.preheader73

.lr.ph80.split:                                   ; preds = %.lr.ph80, %._crit_edge
  %21 = phi ptr [ %42, %._crit_edge ], [ %3, %.lr.ph80 ]
  %22 = phi i32 [ %43, %._crit_edge ], [ %9, %.lr.ph80 ]
  %indvars.iv115 = phi i64 [ %indvars.iv.next116, %._crit_edge ], [ 0, %.lr.ph80 ]
  %.val6478 = phi i32 [ %.val64, %._crit_edge ], [ %.val6476, %.lr.ph80 ]
  %.val62 = load ptr, ptr %6, align 8
  %23 = getelementptr inbounds nuw ptr, ptr %.val62, i64 %indvars.iv115
  %24 = load ptr, ptr %23, align 8
  %25 = load ptr, ptr %7, align 8
  %26 = getelementptr i8, ptr %21, i64 72
  %.val66 = load ptr, ptr %26, align 8
  %27 = getelementptr i8, ptr %.val66, i64 4
  %.val66.val = load i32, ptr %27, align 4
  %28 = trunc nuw nsw i64 %indvars.iv115 to i32
  %29 = sub i32 %28, %.val6478
  %30 = add i32 %29, %.val66.val
  %31 = getelementptr i8, ptr %25, i64 8
  %.val61 = load ptr, ptr %31, align 8
  %32 = sext i32 %30 to i64
  %33 = getelementptr inbounds ptr, ptr %.val61, i64 %32
  %34 = load ptr, ptr %33, align 8
  %35 = icmp sgt i32 %22, 0
  br i1 %35, label %.lr.ph, label %._crit_edge

.lr.ph:                                           ; preds = %.lr.ph80.split, %.lr.ph
  %indvars.iv = phi i64 [ %indvars.iv.next, %.lr.ph ], [ 0, %.lr.ph80.split ]
  %36 = getelementptr inbounds nuw i32, ptr %24, i64 %indvars.iv
  %37 = load i32, ptr %36, align 4
  %38 = getelementptr inbounds nuw i32, ptr %34, i64 %indvars.iv
  store i32 %37, ptr %38, align 4
  %indvars.iv.next = add nuw nsw i64 %indvars.iv, 1
  %39 = load i32, ptr %8, align 8
  %40 = sext i32 %39 to i64
  %41 = icmp slt i64 %indvars.iv.next, %40
  br i1 %41, label %.lr.ph, label %._crit_edge.loopexit, !llvm.loop !15

._crit_edge.loopexit:                             ; preds = %.lr.ph
  %.pre = load ptr, ptr %0, align 8
  br label %._crit_edge

._crit_edge:                                      ; preds = %._crit_edge.loopexit, %.lr.ph80.split
  %42 = phi ptr [ %.pre, %._crit_edge.loopexit ], [ %21, %.lr.ph80.split ]
  %43 = phi i32 [ %39, %._crit_edge.loopexit ], [ %22, %.lr.ph80.split ]
  %indvars.iv.next116 = add nuw nsw i64 %indvars.iv115, 1
  %44 = getelementptr i8, ptr %42, i64 16
  %.val64 = load i32, ptr %44, align 8
  %45 = sext i32 %.val64 to i64
  %46 = icmp slt i64 %indvars.iv.next116, %45
  br i1 %46, label %.lr.ph80.split, label %.preheader74.loopexit, !llvm.loop !16

47:                                               ; preds = %._crit_edge102
  %48 = add nuw nsw i32 %.056103, 1
  %49 = load ptr, ptr %13, align 8
  %50 = getelementptr inbounds nuw i8, ptr %49, i64 4
  %51 = load i32, ptr %50, align 4
  %52 = icmp slt i32 %48, %51
  br i1 %52, label %.preheader73, label %._crit_edge105, !llvm.loop !18

.preheader73:                                     ; preds = %.preheader73.lr.ph, %47
  %.152104 = phi i32 [ %.051.lcssa, %.preheader73.lr.ph ], [ %.253.lcssa, %47 ]
  %.056103 = phi i32 [ 0, %.preheader73.lr.ph ], [ %48, %47 ]
  %53 = load ptr, ptr %0, align 8
  %54 = getelementptr i8, ptr %53, i64 16
  %.val6985 = load i32, ptr %54, align 8
  %55 = getelementptr i8, ptr %53, i64 64
  %.val7086 = load ptr, ptr %55, align 8
  %56 = getelementptr i8, ptr %.val7086, i64 4
  %.val70.val87 = load i32, ptr %56, align 4
  %57 = icmp sgt i32 %.val70.val87, %.val6985
  br i1 %57, label %.lr.ph90, label %.preheader

.lr.ph90:                                         ; preds = %.preheader73
  %58 = load i32, ptr %19, align 8
  %59 = icmp sgt i32 %58, 0
  br i1 %59, label %.lr.ph90.split.preheader, label %.lr.ph90.split.us

.lr.ph90.split.preheader:                         ; preds = %.lr.ph90
  %60 = sext i32 %.152104 to i64
  br label %.lr.ph90.split

.lr.ph90.split.us:                                ; preds = %.lr.ph90
  %61 = sub nsw i32 %.val70.val87, %.val6985
  %smax118 = tail call i32 @llvm.smax.i32(i32 %61, i32 1)
  %62 = add i32 %.152104, %smax118
  br label %.preheader

.preheader.loopexit:                              ; preds = %._crit_edge84
  %63 = trunc nsw i64 %indvars.iv.next123 to i32
  br label %.preheader

.preheader:                                       ; preds = %.lr.ph90.split.us, %.preheader.loopexit, %.preheader73
  %.val6397 = phi i32 [ %.val6985, %.preheader73 ], [ %.val69, %.preheader.loopexit ], [ %.val6985, %.lr.ph90.split.us ]
  %64 = phi ptr [ %53, %.preheader73 ], [ %81, %.preheader.loopexit ], [ %53, %.lr.ph90.split.us ]
  %.253.lcssa = phi i32 [ %.152104, %.preheader73 ], [ %63, %.preheader.loopexit ], [ %62, %.lr.ph90.split.us ]
  %65 = icmp sgt i32 %.val6397, 0
  br i1 %65, label %.lr.ph101.preheader, label %._crit_edge102

.lr.ph101.preheader:                              ; preds = %.preheader
  %.pre134 = load i32, ptr %19, align 8
  br label %.lr.ph101

.lr.ph90.split:                                   ; preds = %.lr.ph90.split.preheader, %._crit_edge84
  %66 = phi ptr [ %53, %.lr.ph90.split.preheader ], [ %81, %._crit_edge84 ]
  %67 = phi i32 [ %58, %.lr.ph90.split.preheader ], [ %82, %._crit_edge84 ]
  %indvars.iv124 = phi i64 [ 0, %.lr.ph90.split.preheader ], [ %indvars.iv.next125, %._crit_edge84 ]
  %indvars.iv122 = phi i64 [ %60, %.lr.ph90.split.preheader ], [ %indvars.iv.next123, %._crit_edge84 ]
  %indvars.iv.next123 = add nsw i64 %indvars.iv122, 1
  %.val60 = load ptr, ptr %18, align 8
  %68 = getelementptr inbounds ptr, ptr %.val60, i64 %indvars.iv122
  %69 = load ptr, ptr %68, align 8
  %70 = load ptr, ptr %12, align 8
  %71 = getelementptr i8, ptr %70, i64 8
  %.val59 = load ptr, ptr %71, align 8
  %72 = getelementptr inbounds nuw ptr, ptr %.val59, i64 %indvars.iv124
  %73 = load ptr, ptr %72, align 8
  %74 = icmp sgt i32 %67, 0
  br i1 %74, label %.lr.ph83, label %._crit_edge84

.lr.ph83:                                         ; preds = %.lr.ph90.split, %.lr.ph83
  %indvars.iv119 = phi i64 [ %indvars.iv.next120, %.lr.ph83 ], [ 0, %.lr.ph90.split ]
  %75 = getelementptr inbounds nuw i32, ptr %69, i64 %indvars.iv119
  %76 = load i32, ptr %75, align 4
  %77 = getelementptr inbounds nuw i32, ptr %73, i64 %indvars.iv119
  store i32 %76, ptr %77, align 4
  %indvars.iv.next120 = add nuw nsw i64 %indvars.iv119, 1
  %78 = load i32, ptr %19, align 8
  %79 = sext i32 %78 to i64
  %80 = icmp slt i64 %indvars.iv.next120, %79
  br i1 %80, label %.lr.ph83, label %._crit_edge84.loopexit, !llvm.loop !19

._crit_edge84.loopexit:                           ; preds = %.lr.ph83
  %.pre132 = load ptr, ptr %0, align 8
  br label %._crit_edge84

._crit_edge84:                                    ; preds = %._crit_edge84.loopexit, %.lr.ph90.split
  %81 = phi ptr [ %.pre132, %._crit_edge84.loopexit ], [ %66, %.lr.ph90.split ]
  %82 = phi i32 [ %78, %._crit_edge84.loopexit ], [ %67, %.lr.ph90.split ]
  %indvars.iv.next125 = add nuw nsw i64 %indvars.iv124, 1
  %83 = getelementptr i8, ptr %81, i64 16
  %.val69 = load i32, ptr %83, align 8
  %84 = getelementptr i8, ptr %81, i64 64
  %.val70 = load ptr, ptr %84, align 8
  %85 = getelementptr i8, ptr %.val70, i64 4
  %.val70.val = load i32, ptr %85, align 4
  %86 = sub nsw i32 %.val70.val, %.val69
  %87 = sext i32 %86 to i64
  %88 = icmp slt i64 %indvars.iv.next125, %87
  br i1 %88, label %.lr.ph90.split, label %.preheader.loopexit, !llvm.loop !20

.lr.ph101:                                        ; preds = %.lr.ph101.preheader, %._crit_edge96
  %89 = phi ptr [ %115, %._crit_edge96 ], [ %64, %.lr.ph101.preheader ]
  %90 = phi i32 [ %116, %._crit_edge96 ], [ %.pre134, %.lr.ph101.preheader ]
  %.val63.pn = phi i32 [ %.val63, %._crit_edge96 ], [ %.val6397, %.lr.ph101.preheader ]
  %.15599 = phi i32 [ %117, %._crit_edge96 ], [ 0, %.lr.ph101.preheader ]
  %91 = load ptr, ptr %20, align 8
  %92 = getelementptr i8, ptr %89, i64 72
  %.val68 = load ptr, ptr %92, align 8
  %93 = getelementptr i8, ptr %.val68, i64 4
  %.val68.val = load i32, ptr %93, align 4
  %94 = sub i32 %.15599, %.val63.pn
  %95 = add i32 %94, %.val68.val
  %96 = getelementptr i8, ptr %91, i64 8
  %.val58 = load ptr, ptr %96, align 8
  %97 = sext i32 %95 to i64
  %98 = getelementptr inbounds ptr, ptr %.val58, i64 %97
  %99 = load ptr, ptr %98, align 8
  %100 = load ptr, ptr %12, align 8
  %101 = getelementptr i8, ptr %89, i64 64
  %.val72 = load ptr, ptr %101, align 8
  %102 = getelementptr i8, ptr %.val72, i64 4
  %.val72.val = load i32, ptr %102, align 4
  %103 = add i32 %94, %.val72.val
  %104 = getelementptr i8, ptr %100, i64 8
  %.val = load ptr, ptr %104, align 8
  %105 = sext i32 %103 to i64
  %106 = getelementptr inbounds ptr, ptr %.val, i64 %105
  %107 = load ptr, ptr %106, align 8
  %108 = icmp sgt i32 %90, 0
  br i1 %108, label %.lr.ph95, label %._crit_edge96

.lr.ph95:                                         ; preds = %.lr.ph101, %.lr.ph95
  %indvars.iv129 = phi i64 [ %indvars.iv.next130, %.lr.ph95 ], [ 0, %.lr.ph101 ]
  %109 = getelementptr inbounds nuw i32, ptr %99, i64 %indvars.iv129
  %110 = load i32, ptr %109, align 4
  %111 = getelementptr inbounds nuw i32, ptr %107, i64 %indvars.iv129
  store i32 %110, ptr %111, align 4
  %indvars.iv.next130 = add nuw nsw i64 %indvars.iv129, 1
  %112 = load i32, ptr %19, align 8
  %113 = sext i32 %112 to i64
  %114 = icmp slt i64 %indvars.iv.next130, %113
  br i1 %114, label %.lr.ph95, label %._crit_edge96.loopexit, !llvm.loop !21

._crit_edge96.loopexit:                           ; preds = %.lr.ph95
  %.pre135 = load ptr, ptr %0, align 8
  br label %._crit_edge96

._crit_edge96:                                    ; preds = %._crit_edge96.loopexit, %.lr.ph101
  %115 = phi ptr [ %.pre135, %._crit_edge96.loopexit ], [ %89, %.lr.ph101 ]
  %116 = phi i32 [ %112, %._crit_edge96.loopexit ], [ %90, %.lr.ph101 ]
  %117 = add nuw nsw i32 %.15599, 1
  %118 = getelementptr i8, ptr %115, i64 16
  %.val63 = load i32, ptr %118, align 8
  %119 = icmp slt i32 %117, %.val63
  br i1 %119, label %.lr.ph101, label %._crit_edge102, !llvm.loop !22

._crit_edge102:                                   ; preds = %._crit_edge96, %.preheader
  %120 = load ptr, ptr %12, align 8
  %121 = load ptr, ptr %20, align 8
  %122 = tail call i32 @Cec_ManSimSimulateRound(ptr noundef nonnull %0, ptr noundef %120, ptr noundef %121) #13
  %.not = icmp eq i32 %122, 0
  br i1 %.not, label %47, label %._crit_edge105

._crit_edge105:                                   ; preds = %._crit_edge102, %47, %.preheader74
  %.057 = phi i32 [ 0, %.preheader74 ], [ 0, %47 ], [ 1, %._crit_edge102 ]
  ret i32 %.057
}